; Function Attrs: mustprogress uwtable
define void @_ZNK6casadi11FmuFunction9get_statsB5cxx11EPv(ptr dead_on_unwind noalias writable sret(%"class.std::map") align 8 %0, ptr noundef nonnull align 8 dereferenceable(1752) %1, ptr noundef %2) unnamed_addr #3 align 2 personality ptr @__gxx_personality_v0 {
  tail call void @_ZNK6casadi13ProtoFunction9get_statsB5cxx11EPv(ptr dead_on_unwind writable sret(%"class.std::map") align 8 %0, ptr noundef nonnull align 8 dereferenceable(168) %1, ptr noundef %2)
  %4 = getelementptr inbounds i8, ptr %1, i64 1304
  %5 = getelementptr inbounds i8, ptr %1, i64 320
  %6 = getelementptr inbounds i8, ptr %1, i64 1312
  %7 = load ptr, ptr %6, align 8
  %8 = getelementptr inbounds i8, ptr %1, i64 1320
  %9 = load ptr, ptr %8, align 8
  %10 = icmp eq ptr %7, %9
  %spec.select.i = select i1 %10, ptr null, ptr %7
  invoke void @_ZNK6casadi3Fmu9get_statsEPNS_9FmuMemoryEPSt3mapINSt7__cxx1112basic_stringIcSt11char_traitsIcESaIcEEENS_11GenericTypeESt4lessIS9_ESaISt4pairIKS9_SA_EEERKSt6vectorIS9_SaIS9_EEPKNS_11InputStructE(ptr noundef nonnull align 8 dereferenceable(8) %4, ptr noundef %2, ptr noundef %0, ptr noundef nonnull align 8 dereferenceable(24) %5, ptr noundef %spec.select.i)
          to label %13 unwind label %11

11:                                               ; preds = %3
  %12 = landingpad { ptr, i32 }
          cleanup
  tail call void @_ZNSt3mapINSt7__cxx1112basic_stringIcSt11char_traitsIcESaIcEEEN6casadi11GenericTypeESt4lessIS5_ESaISt4pairIKS5_S7_EEED2Ev(ptr noundef nonnull align 8 dereferenceable(48) %0) #22
  resume { ptr, i32 } %12

13:                                               ; preds = %3
  ret void
}